; Function Attrs: mustprogress nofree norecurse nosync nounwind willreturn memory(read, inaccessiblemem: none) uwtable
define hidden noundef zeroext i1 @_ZN8ciReplay19is_klass_unresolvedEPK13InstanceKlass(ptr noundef readnone %0) local_unnamed_addr #6 align 2 {
  %2 = load ptr, ptr @_ZL12replay_state, align 8
  %3 = icmp eq ptr %2, null
  br i1 %3, label %_ZN13CompileReplay20find_ciInstanceKlassEPK13InstanceKlass.exit, label %4

4:                                                ; preds = %1
  %5 = getelementptr inbounds i8, ptr %2, i64 96
  %6 = load i32, ptr %5, align 4
  %7 = icmp sgt i32 %6, 0
  br i1 %7, label %.lr.ph.i, label %_ZN13CompileReplay20find_ciInstanceKlassEPK13InstanceKlass.exit

.lr.ph.i:                                         ; preds = %4
  %8 = getelementptr inbounds i8, ptr %2, i64 104
  %9 = load ptr, ptr %8, align 8
  %wide.trip.count.i = zext nneg i32 %6 to i64
  br label %10

10:                                               ; preds = %10, %.lr.ph.i
  %indvars.iv.i = phi i64 [ 0, %.lr.ph.i ], [ %indvars.iv.next.i, %10 ]
  %11 = getelementptr inbounds ptr, ptr %9, i64 %indvars.iv.i
  %12 = load ptr, ptr %11, align 8
  %13 = load ptr, ptr %12, align 8
  %.not = icmp ne ptr %13, %0
  %indvars.iv.next.i = add nuw nsw i64 %indvars.iv.i, 1
  %exitcond.not.i = icmp ne i64 %indvars.iv.next.i, %wide.trip.count.i
  %or.cond.not = select i1 %.not, i1 %exitcond.not.i, i1 false
  br i1 %or.cond.not, label %10, label %_ZN13CompileReplay20find_ciInstanceKlassEPK13InstanceKlass.exit, !llvm.loop !17

_ZN13CompileReplay20find_ciInstanceKlassEPK13InstanceKlass.exit: ; preds = %10, %4, %1
  %.0 = phi i1 [ false, %1 ], [ true, %4 ], [ %.not, %10 ]
  ret i1 %.0
}